(lp1
(lp2
F1
aF1
aF1
aF1
aa(lp3
F1
aF1
aF1
aF1
aa(lp4
F0
aF0.29999999999999999
aF0.59999999999999998
aF1
aa(lp5
F0.98999999999999999
aF0.98999999999999999
aF0.98999999999999999
aF0.98999999999999999
aa(lp6
I3
aI2
aI5
aI4
aa(lp7
I0
aI0
aI0
aI0
aa(lp8
I5
aI12
aI16
aI7
aa(lp9
S'16n'
p10
ag10
ag10
ag10
aa.