(lp1
(lp2
F1
aF1
aF1
aF1
aa(lp3
F1
aF0
aF0
aF0
aa(lp4
F0.5
aF0.5
aF0.5
aF0.5
aa(lp5
F0.98999999999999999
aF0.98999999999999999
aF0.98999999999999999
aF0.98999999999999999
aa(lp6
I1
aI1
aI1
aI1
aa(lp7
I0
aI0
aI0
aI0
aa(lp8
I2
aI2
aI2
aI2
aa(lp9
S'16n'
p10
ag10
ag10
ag10
aa.